target datalayout = "e-m:e-p270:32:32-p271:32:32-p272:64:64-i64:64-i128:128-f80:128-n8:16:32:64-S128"
target triple = "x86_64-pc-linux-gnu"

%struct.Ses_Store_t_ = type { i32, i32, i32, i32, i32, i32, [1024 x ptr], ptr, ptr, ptr, i64, [9 x i64], i64, [9 x i64], i64, [9 x i64], i64, [9 x i64], i64, [9 x i64], i64, [9 x i64], i64, [9 x i64], i64, i64, i64, i64, i64, i64, i64, i64, i64, i64 }
%struct.Ses_TruthEntry_t_ = type { [4 x i64], i32, ptr, ptr }
%struct.Ses_TimesEntry_t_ = type { [8 x i32], i32, ptr, ptr }

@Ses_StoreTableHash.s_Primes = internal global [4 x i32] [i32 1291, i32 1699, i32 1999, i32 2357], align 16

; Function Attrs: inlinehint nounwind uwtable
define internal i32 @Abc_TtWordNum(i32 noundef %0) #2 {
  %2 = alloca i32, align 4
  store i32 %0, ptr %2, align 4, !tbaa !10
  %3 = load i32, ptr %2, align 4, !tbaa !10
  %4 = icmp sle i32 %3, 6
  br i1 %4, label %5, label %6

5:                                                ; preds = %1
  br label %10

6:                                                ; preds = %1
  %7 = load i32, ptr %2, align 4, !tbaa !10
  %8 = sub nsw i32 %7, 6
  %9 = shl i32 1, %8
  br label %10

10:                                               ; preds = %6, %5
  %11 = phi i32 [ 1, %5 ], [ %9, %6 ]
  ret i32 %11
}

; Function Attrs: inlinehint nounwind uwtable
define internal i32 @Ses_StoreTimesEqual(ptr noundef %0, ptr noundef %1, i32 noundef %2) #2 {
  %4 = alloca i32, align 4
  %5 = alloca ptr, align 8
  %6 = alloca ptr, align 8
  %7 = alloca i32, align 4
  %8 = alloca i32, align 4
  %9 = alloca i32, align 4
  store ptr %0, ptr %5, align 8, !tbaa !12
  store ptr %1, ptr %6, align 8, !tbaa !12
  store i32 %2, ptr %7, align 4, !tbaa !10
  call void @llvm.lifetime.start.p0(i64 4, ptr %8) #14
  store i32 0, ptr %8, align 4, !tbaa !10
  br label %10

10:                                               ; preds = %28, %3
  %11 = load i32, ptr %8, align 4, !tbaa !10
  %12 = load i32, ptr %7, align 4, !tbaa !10
  %13 = icmp slt i32 %11, %12
  br i1 %13, label %14, label %31

14:                                               ; preds = %10
  %15 = load ptr, ptr %5, align 8, !tbaa !12
  %16 = load i32, ptr %8, align 4, !tbaa !10
  %17 = sext i32 %16 to i64
  %18 = getelementptr inbounds i32, ptr %15, i64 %17
  %19 = load i32, ptr %18, align 4, !tbaa !10
  %20 = load ptr, ptr %6, align 8, !tbaa !12
  %21 = load i32, ptr %8, align 4, !tbaa !10
  %22 = sext i32 %21 to i64
  %23 = getelementptr inbounds i32, ptr %20, i64 %22
  %24 = load i32, ptr %23, align 4, !tbaa !10
  %25 = icmp ne i32 %19, %24
  br i1 %25, label %26, label %27

26:                                               ; preds = %14
  store i32 0, ptr %4, align 4
  store i32 1, ptr %9, align 4
  br label %32

27:                                               ; preds = %14
  br label %28

28:                                               ; preds = %27
  %29 = load i32, ptr %8, align 4, !tbaa !10
  %30 = add nsw i32 %29, 1
  store i32 %30, ptr %8, align 4, !tbaa !10
  br label %10, !llvm.loop !52

31:                                               ; preds = %10
  store i32 1, ptr %4, align 4
  store i32 1, ptr %9, align 4
  br label %32

32:                                               ; preds = %31, %26
  call void @llvm.lifetime.end.p0(i64 4, ptr %8) #14
  %33 = load i32, ptr %4, align 4
  ret i32 %33
}

; Function Attrs: inlinehint nounwind uwtable
define internal i32 @Ses_StoreTruthEqual(ptr noundef %0, ptr noundef %1, i32 noundef %2) #2 {
  %4 = alloca i32, align 4
  %5 = alloca ptr, align 8
  %6 = alloca ptr, align 8
  %7 = alloca i32, align 4
  %8 = alloca i32, align 4
  %9 = alloca i32, align 4
  store ptr %0, ptr %5, align 8, !tbaa !16
  store ptr %1, ptr %6, align 8, !tbaa !8
  store i32 %2, ptr %7, align 4, !tbaa !10
  call void @llvm.lifetime.start.p0(i64 4, ptr %8) #14
  %10 = load ptr, ptr %5, align 8, !tbaa !16
  %11 = getelementptr inbounds nuw %struct.Ses_TruthEntry_t_, ptr %10, i32 0, i32 1
  %12 = load i32, ptr %11, align 8, !tbaa !49
  %13 = load i32, ptr %7, align 4, !tbaa !10
  %14 = icmp ne i32 %12, %13
  br i1 %14, label %15, label %16

15:                                               ; preds = %3
  store i32 0, ptr %4, align 4
  store i32 1, ptr %9, align 4
  br label %41

16:                                               ; preds = %3
  store i32 0, ptr %8, align 4, !tbaa !10
  br label %17

17:                                               ; preds = %37, %16
  %18 = load i32, ptr %8, align 4, !tbaa !10
  %19 = load i32, ptr %7, align 4, !tbaa !10
  %20 = call i32 @Abc_TtWordNum(i32 noundef %19)
  %21 = icmp slt i32 %18, %20
  br i1 %21, label %22, label %40

22:                                               ; preds = %17
  %23 = load ptr, ptr %5, align 8, !tbaa !16
  %24 = getelementptr inbounds nuw %struct.Ses_TruthEntry_t_, ptr %23, i32 0, i32 0
  %25 = load i32, ptr %8, align 4, !tbaa !10
  %26 = sext i32 %25 to i64
  %27 = getelementptr inbounds [4 x i64], ptr %24, i64 0, i64 %26
  %28 = load i64, ptr %27, align 8, !tbaa !37
  %29 = load ptr, ptr %6, align 8, !tbaa !8
  %30 = load i32, ptr %8, align 4, !tbaa !10
  %31 = sext i32 %30 to i64
  %32 = getelementptr inbounds i64, ptr %29, i64 %31
  %33 = load i64, ptr %32, align 8, !tbaa !37
  %34 = icmp ne i64 %28, %33
  br i1 %34, label %35, label %36

35:                                               ; preds = %22
  store i32 0, ptr %4, align 4
  store i32 1, ptr %9, align 4
  br label %41

36:                                               ; preds = %22
  br label %37

37:                                               ; preds = %36
  %38 = load i32, ptr %8, align 4, !tbaa !10
  %39 = add nsw i32 %38, 1
  store i32 %39, ptr %8, align 4, !tbaa !10
  br label %17, !llvm.loop !50

40:                                               ; preds = %17
  store i32 1, ptr %4, align 4
  store i32 1, ptr %9, align 4
  br label %41

41:                                               ; preds = %40, %35, %15
  call void @llvm.lifetime.end.p0(i64 4, ptr %8) #14
  %42 = load i32, ptr %4, align 4
  ret i32 %42
}

; Function Attrs: inlinehint nounwind uwtable
define internal i32 @Ses_StoreTableHash(ptr noundef %0, i32 noundef %1) #2 {
  %3 = alloca ptr, align 8
  %4 = alloca i32, align 4
  %5 = alloca i32, align 4
  %6 = alloca i32, align 4
  store ptr %0, ptr %3, align 8, !tbaa !8
  store i32 %1, ptr %4, align 4, !tbaa !10
  call void @llvm.lifetime.start.p0(i64 4, ptr %5) #14
  call void @llvm.lifetime.start.p0(i64 4, ptr %6) #14
  store i32 0, ptr %6, align 4, !tbaa !10
  store i32 0, ptr %5, align 4, !tbaa !10
  br label %7

7:                                                ; preds = %29, %2
  %8 = load i32, ptr %5, align 4, !tbaa !10
  %9 = load i32, ptr %4, align 4, !tbaa !10
  %10 = call i32 @Abc_TtWordNum(i32 noundef %9)
  %11 = icmp slt i32 %8, %10
  br i1 %11, label %12, label %32

12:                                               ; preds = %7
  %13 = load ptr, ptr %3, align 8, !tbaa !8
  %14 = load i32, ptr %5, align 4, !tbaa !10
  %15 = sext i32 %14 to i64
  %16 = getelementptr inbounds i64, ptr %13, i64 %15
  %17 = load i64, ptr %16, align 8, !tbaa !37
  %18 = load i32, ptr %5, align 4, !tbaa !10
  %19 = and i32 %18, 15
  %20 = sext i32 %19 to i64
  %21 = getelementptr inbounds [4 x i32], ptr @Ses_StoreTableHash.s_Primes, i64 0, i64 %20
  %22 = load i32, ptr %21, align 4, !tbaa !10
  %23 = sext i32 %22 to i64
  %24 = mul i64 %17, %23
  %25 = load i32, ptr %6, align 4, !tbaa !10
  %26 = zext i32 %25 to i64
  %27 = xor i64 %26, %24
  %28 = trunc i64 %27 to i32
  store i32 %28, ptr %6, align 4, !tbaa !10
  br label %29

29:                                               ; preds = %12
  %30 = load i32, ptr %5, align 4, !tbaa !10
  %31 = add nsw i32 %30, 1
  store i32 %31, ptr %5, align 4, !tbaa !10
  br label %7, !llvm.loop !48

32:                                               ; preds = %7
  %33 = load i32, ptr %6, align 4, !tbaa !10
  %34 = urem i32 %33, 1024
  call void @llvm.lifetime.end.p0(i64 4, ptr %6) #14
  call void @llvm.lifetime.end.p0(i64 4, ptr %5) #14
  ret i32 %34
}

; Function Attrs: nounwind uwtable
define i32 @Ses_StoreGetEntry(ptr noundef %0, ptr noundef %1, i32 noundef %2, ptr noundef %3, ptr noundef %4) #0 {
  %6 = alloca i32, align 4
  %7 = alloca ptr, align 8
  %8 = alloca ptr, align 8
  %9 = alloca i32, align 4
  %10 = alloca ptr, align 8
  %11 = alloca ptr, align 8
  %12 = alloca i32, align 4
  %13 = alloca ptr, align 8
  %14 = alloca ptr, align 8
  %15 = alloca [8 x i32], align 16
  %16 = alloca i32, align 4
  store ptr %0, ptr %7, align 8, !tbaa !3
  store ptr %1, ptr %8, align 8, !tbaa !8
  store i32 %2, ptr %9, align 4, !tbaa !10
  store ptr %3, ptr %10, align 8, !tbaa !12
  store ptr %4, ptr %11, align 8, !tbaa !58
  call void @llvm.lifetime.start.p0(i64 4, ptr %12) #14
  call void @llvm.lifetime.start.p0(i64 8, ptr %13) #14
  call void @llvm.lifetime.start.p0(i64 8, ptr %14) #14
  call void @llvm.lifetime.start.p0(i64 32, ptr %15) #14
  %17 = load ptr, ptr %8, align 8, !tbaa !8
  %18 = load i32, ptr %9, align 4, !tbaa !10
  %19 = call i32 @Ses_StoreTableHash(ptr noundef %17, i32 noundef %18)
  store i32 %19, ptr %12, align 4, !tbaa !10
  %20 = load ptr, ptr %7, align 8, !tbaa !3
  %21 = getelementptr inbounds nuw %struct.Ses_Store_t_, ptr %20, i32 0, i32 6
  %22 = load i32, ptr %12, align 4, !tbaa !10
  %23 = sext i32 %22 to i64
  %24 = getelementptr inbounds [1024 x ptr], ptr %21, i64 0, i64 %23
  %25 = load ptr, ptr %24, align 8, !tbaa !16
  store ptr %25, ptr %13, align 8, !tbaa !16
  br label %26

26:                                               ; preds = %40, %5
  %27 = load ptr, ptr %13, align 8, !tbaa !16
  %28 = icmp ne ptr %27, null
  br i1 %28, label %29, label %41

29:                                               ; preds = %26
  %30 = load ptr, ptr %13, align 8, !tbaa !16
  %31 = load ptr, ptr %8, align 8, !tbaa !8
  %32 = load i32, ptr %9, align 4, !tbaa !10
  %33 = call i32 @Ses_StoreTruthEqual(ptr noundef %30, ptr noundef %31, i32 noundef %32)
  %34 = icmp ne i32 %33, 0
  br i1 %34, label %35, label %36

35:                                               ; preds = %29
  br label %41

36:                                               ; preds = %29
  %37 = load ptr, ptr %13, align 8, !tbaa !16
  %38 = getelementptr inbounds nuw %struct.Ses_TruthEntry_t_, ptr %37, i32 0, i32 2
  %39 = load ptr, ptr %38, align 8, !tbaa !18
  store ptr %39, ptr %13, align 8, !tbaa !16
  br label %40

40:                                               ; preds = %36
  br label %26, !llvm.loop !62

41:                                               ; preds = %35, %26
  %42 = load ptr, ptr %13, align 8, !tbaa !16
  %43 = icmp ne ptr %42, null
  br i1 %43, label %45, label %44

44:                                               ; preds = %41
  store i32 0, ptr %6, align 4
  store i32 1, ptr %16, align 4
  br label %101

45:                                               ; preds = %41
  %46 = load ptr, ptr %13, align 8, !tbaa !16
  %47 = getelementptr inbounds nuw %struct.Ses_TruthEntry_t_, ptr %46, i32 0, i32 3
  %48 = load ptr, ptr %47, align 8, !tbaa !23
  store ptr %48, ptr %14, align 8, !tbaa !24
  br label %49

49:                                               ; preds = %91, %45
  %50 = load ptr, ptr %14, align 8, !tbaa !24
  %51 = icmp ne ptr %50, null
  br i1 %51, label %52, label %92

52:                                               ; preds = %49
  %53 = load ptr, ptr %14, align 8, !tbaa !24
  %54 = getelementptr inbounds nuw %struct.Ses_TimesEntry_t_, ptr %53, i32 0, i32 3
  %55 = load ptr, ptr %54, align 8, !tbaa !28
  %56 = icmp ne ptr %55, null
  br i1 %56, label %57, label %77

57:                                               ; preds = %52
  %58 = getelementptr inbounds [8 x i32], ptr %15, i64 0, i64 0
  %59 = load ptr, ptr %10, align 8, !tbaa !12
  %60 = load i32, ptr %9, align 4, !tbaa !10
  %61 = sext i32 %60 to i64
  %62 = mul i64 4, %61
  call void @llvm.memcpy.p0.p0.i64(ptr align 16 %58, ptr align 4 %59, i64 %62, i1 false)
  %63 = load i32, ptr %9, align 4, !tbaa !10
  %64 = getelementptr inbounds [8 x i32], ptr %15, i64 0, i64 0
  %65 = load ptr, ptr %14, align 8, !tbaa !24
  %66 = getelementptr inbounds nuw %struct.Ses_TimesEntry_t_, ptr %65, i32 0, i32 3
  %67 = load ptr, ptr %66, align 8, !tbaa !28
  call void @Abc_ExactNormalizeArrivalTimesForNetwork(i32 noundef %63, ptr noundef %64, ptr noundef %67)
  %68 = getelementptr inbounds [8 x i32], ptr %15, i64 0, i64 0
  %69 = load ptr, ptr %14, align 8, !tbaa !24
  %70 = getelementptr inbounds nuw %struct.Ses_TimesEntry_t_, ptr %69, i32 0, i32 0
  %71 = getelementptr inbounds [8 x i32], ptr %70, i64 0, i64 0
  %72 = load i32, ptr %9, align 4, !tbaa !10
  %73 = call i32 @Ses_StoreTimesEqual(ptr noundef %68, ptr noundef %71, i32 noundef %72)
  %74 = icmp ne i32 %73, 0
  br i1 %74, label %75, label %76

75:                                               ; preds = %57
  br label %92

76:                                               ; preds = %57
  br label %91

77:                                               ; preds = %52
  %78 = load ptr, ptr %10, align 8, !tbaa !12
  %79 = load ptr, ptr %14, align 8, !tbaa !24
  %80 = getelementptr inbounds nuw %struct.Ses_TimesEntry_t_, ptr %79, i32 0, i32 0
  %81 = getelementptr inbounds [8 x i32], ptr %80, i64 0, i64 0
  %82 = load i32, ptr %9, align 4, !tbaa !10
  %83 = call i32 @Ses_StoreTimesEqual(ptr noundef %78, ptr noundef %81, i32 noundef %82)
  %84 = icmp ne i32 %83, 0
  br i1 %84, label %85, label %86

85:                                               ; preds = %77
  br label %92

86:                                               ; preds = %77
  %87 = load ptr, ptr %14, align 8, !tbaa !24
  %88 = getelementptr inbounds nuw %struct.Ses_TimesEntry_t_, ptr %87, i32 0, i32 2
  %89 = load ptr, ptr %88, align 8, !tbaa !25
  store ptr %89, ptr %14, align 8, !tbaa !24
  br label %90

90:                                               ; preds = %86
  br label %91

91:                                               ; preds = %90, %76
  br label %49, !llvm.loop !63

92:                                               ; preds = %85, %75, %49
  %93 = load ptr, ptr %14, align 8, !tbaa !24
  %94 = icmp ne ptr %93, null
  br i1 %94, label %96, label %95

95:                                               ; preds = %92
  store i32 0, ptr %6, align 4
  store i32 1, ptr %16, align 4
  br label %101

96:                                               ; preds = %92
  %97 = load ptr, ptr %14, align 8, !tbaa !24
  %98 = getelementptr inbounds nuw %struct.Ses_TimesEntry_t_, ptr %97, i32 0, i32 3
  %99 = load ptr, ptr %98, align 8, !tbaa !28
  %100 = load ptr, ptr %11, align 8, !tbaa !58
  store ptr %99, ptr %100, align 8, !tbaa !14
  store i32 1, ptr %6, align 4
  store i32 1, ptr %16, align 4
  br label %101

101:                                              ; preds = %96, %95, %44
  call void @llvm.lifetime.end.p0(i64 32, ptr %15) #14
  call void @llvm.lifetime.end.p0(i64 8, ptr %14) #14
  call void @llvm.lifetime.end.p0(i64 8, ptr %13) #14
  call void @llvm.lifetime.end.p0(i64 4, ptr %12) #14
  %102 = load i32, ptr %6, align 4
  ret i32 %102
}