; Function Attrs: nounwind uwtable
define range(i32 0, 2) i32 @Ses_StoreGetEntry(ptr noundef readonly captures(none) %0, ptr noundef readonly captures(none) %1, i32 noundef %2, ptr noundef readonly captures(none) %3, ptr noundef writeonly captures(none) %4) local_unnamed_addr #0 {
  %6 = alloca [8 x i32], align 16
  call void @llvm.lifetime.start.p0(i64 32, ptr nonnull %6) #29
  %7 = icmp slt i32 %2, 7
  %8 = add nsw i32 %2, -6
  %9 = shl nuw i32 1, %8
  %10 = select i1 %7, i32 1, i32 %9
  %11 = icmp sgt i32 %10, 0
  br i1 %11, label %.lr.ph.preheader.i, label %Ses_StoreTableHash.exit.thread

.lr.ph.preheader.i:                               ; preds = %5
  %wide.trip.count.i = zext nneg i32 %10 to i64
  br label %.lr.ph.i

.lr.ph.i:                                         ; preds = %.lr.ph.i, %.lr.ph.preheader.i
  %indvars.iv.i = phi i64 [ 0, %.lr.ph.preheader.i ], [ %indvars.iv.next.i, %.lr.ph.i ]
  %.09.i = phi i32 [ 0, %.lr.ph.preheader.i ], [ %19, %.lr.ph.i ]
  %12 = getelementptr inbounds nuw i64, ptr %1, i64 %indvars.iv.i
  %13 = load i64, ptr %12, align 8, !tbaa !3
  %14 = and i64 %indvars.iv.i, 15
  %15 = getelementptr inbounds nuw [4 x i32], ptr @Ses_StoreTableHash.s_Primes, i64 0, i64 %14
  %16 = load i32, ptr %15, align 4, !tbaa !7
  %17 = trunc i64 %13 to i32
  %18 = mul i32 %16, %17
  %19 = xor i32 %18, %.09.i
  %indvars.iv.next.i = add nuw nsw i64 %indvars.iv.i, 1
  %exitcond.not.i = icmp eq i64 %indvars.iv.next.i, %wide.trip.count.i
  br i1 %exitcond.not.i, label %Ses_StoreTableHash.exit, label %.lr.ph.i, !llvm.loop !9

Ses_StoreTableHash.exit:                          ; preds = %.lr.ph.i
  %20 = and i32 %19, 1023
  %21 = zext nneg i32 %20 to i64
  %22 = getelementptr inbounds nuw i8, ptr %0, i64 24
  %23 = getelementptr inbounds nuw [1024 x ptr], ptr %22, i64 0, i64 %21
  %.02674 = load ptr, ptr %23, align 8, !tbaa !11
  %.not75 = icmp eq ptr %.02674, null
  br i1 %.not75, label %.critedge, label %.lr.ph

Ses_StoreTableHash.exit.thread:                   ; preds = %5
  %24 = getelementptr inbounds nuw i8, ptr %0, i64 24
  %.0267493 = load ptr, ptr %24, align 8, !tbaa !11
  %.not7594 = icmp eq ptr %.0267493, null
  br i1 %.not7594, label %.critedge, label %.lr.ph.split

.lr.ph:                                           ; preds = %Ses_StoreTableHash.exit
  %wide.trip.count.i37 = zext nneg i32 %10 to i64
  br label %.lr.ph.split.us

.lr.ph.split.us:                                  ; preds = %.lr.ph, %.loopexit.us
  %.02676.us = phi ptr [ %.026.us, %.loopexit.us ], [ %.02674, %.lr.ph ]
  %25 = getelementptr inbounds nuw i8, ptr %.02676.us, i64 32
  %26 = load i32, ptr %25, align 8, !tbaa !14
  %.not.i.us = icmp eq i32 %26, %2
  br i1 %.not.i.us, label %.lr.ph.i38.us, label %.loopexit.us

.lr.ph.i38.us:                                    ; preds = %.lr.ph.split.us, %32
  %indvars.iv.i39.us = phi i64 [ %indvars.iv.next.i40.us, %32 ], [ 0, %.lr.ph.split.us ]
  %27 = getelementptr inbounds nuw [4 x i64], ptr %.02676.us, i64 0, i64 %indvars.iv.i39.us
  %28 = load i64, ptr %27, align 8, !tbaa !3
  %29 = getelementptr inbounds nuw i64, ptr %1, i64 %indvars.iv.i39.us
  %30 = load i64, ptr %29, align 8, !tbaa !3
  %.not11.i.us = icmp eq i64 %28, %30
  br i1 %.not11.i.us, label %32, label %.loopexit.us

.loopexit.us:                                     ; preds = %.lr.ph.i38.us, %.lr.ph.split.us
  %31 = getelementptr inbounds nuw i8, ptr %.02676.us, i64 40
  %.026.us = load ptr, ptr %31, align 8, !tbaa !11
  %.not.us = icmp eq ptr %.026.us, null
  br i1 %.not.us, label %.critedge, label %.lr.ph.split.us, !llvm.loop !56

32:                                               ; preds = %.lr.ph.i38.us
  %indvars.iv.next.i40.us = add nuw nsw i64 %indvars.iv.i39.us, 1
  %exitcond.not.i41.us = icmp eq i64 %indvars.iv.next.i40.us, %wide.trip.count.i37
  br i1 %exitcond.not.i41.us, label %Ses_StoreTruthEqual.exit, label %.lr.ph.i38.us, !llvm.loop !18

.lr.ph.split:                                     ; preds = %Ses_StoreTableHash.exit.thread, %35
  %.02676 = phi ptr [ %.026, %35 ], [ %.0267493, %Ses_StoreTableHash.exit.thread ]
  %33 = getelementptr inbounds nuw i8, ptr %.02676, i64 32
  %34 = load i32, ptr %33, align 8, !tbaa !14
  %.not.i = icmp eq i32 %34, %2
  br i1 %.not.i, label %Ses_StoreTruthEqual.exit, label %35

35:                                               ; preds = %.lr.ph.split
  %36 = getelementptr inbounds nuw i8, ptr %.02676, i64 40
  %.026 = load ptr, ptr %36, align 8, !tbaa !11
  %.not = icmp eq ptr %.026, null
  br i1 %.not, label %.critedge, label %.lr.ph.split, !llvm.loop !56

Ses_StoreTruthEqual.exit:                         ; preds = %.lr.ph.split, %32
  %.02672 = phi ptr [ %.02676.us, %32 ], [ %.02676, %.lr.ph.split ]
  %37 = getelementptr inbounds nuw i8, ptr %.02672, i64 48
  %38 = load ptr, ptr %37, align 8, !tbaa !28
  %.not2978 = icmp eq ptr %38, null
  br i1 %.not2978, label %.critedge, label %.lr.ph80

.lr.ph80:                                         ; preds = %Ses_StoreTruthEqual.exit
  %39 = sext i32 %2 to i64
  %40 = shl nsw i64 %39, 2
  %41 = icmp sgt i32 %2, 0
  %wide.trip.count.i43 = zext nneg i32 %2 to i64
  br label %42

42:                                               ; preds = %.lr.ph80, %Ses_StoreTimesEqual.exit
  %.079 = phi ptr [ %38, %.lr.ph80 ], [ %.1, %Ses_StoreTimesEqual.exit ]
  %43 = getelementptr inbounds nuw i8, ptr %.079, i64 48
  %44 = load ptr, ptr %43, align 8, !tbaa !23
  %.not30 = icmp eq ptr %44, null
  br i1 %.not30, label %52, label %45

45:                                               ; preds = %42
  call void @llvm.memcpy.p0.p0.i64(ptr nonnull align 16 %6, ptr align 4 %3, i64 %40, i1 false)
  %46 = load ptr, ptr %43, align 8, !tbaa !23
  call fastcc void @Abc_ExactNormalizeArrivalTimesForNetwork(i32 noundef %2, ptr noundef nonnull %6, ptr noundef %46)
  br i1 %41, label %.lr.ph.i44, label %Ses_StoreTimesEqual.exit.thread

47:                                               ; preds = %.lr.ph.i44
  %indvars.iv.next.i47 = add nuw nsw i64 %indvars.iv.i45, 1
  %exitcond.not.i48 = icmp eq i64 %indvars.iv.next.i47, %wide.trip.count.i43
  br i1 %exitcond.not.i48, label %Ses_StoreTimesEqual.exit.thread, label %.lr.ph.i44, !llvm.loop !22

.lr.ph.i44:                                       ; preds = %45, %47
  %indvars.iv.i45 = phi i64 [ %indvars.iv.next.i47, %47 ], [ 0, %45 ]
  %48 = getelementptr inbounds nuw i32, ptr %6, i64 %indvars.iv.i45
  %49 = load i32, ptr %48, align 4, !tbaa !7
  %50 = getelementptr inbounds nuw i32, ptr %.079, i64 %indvars.iv.i45
  %51 = load i32, ptr %50, align 4, !tbaa !7
  %.not.i46 = icmp eq i32 %49, %51
  br i1 %.not.i46, label %47, label %Ses_StoreTimesEqual.exit

52:                                               ; preds = %42
  br i1 %41, label %.lr.ph.i52, label %Ses_StoreTimesEqual.exit.thread

53:                                               ; preds = %.lr.ph.i52
  %indvars.iv.next.i55 = add nuw nsw i64 %indvars.iv.i53, 1
  %exitcond.not.i56 = icmp eq i64 %indvars.iv.next.i55, %wide.trip.count.i43
  br i1 %exitcond.not.i56, label %Ses_StoreTimesEqual.exit.thread, label %.lr.ph.i52, !llvm.loop !22

.lr.ph.i52:                                       ; preds = %52, %53
  %indvars.iv.i53 = phi i64 [ %indvars.iv.next.i55, %53 ], [ 0, %52 ]
  %54 = getelementptr inbounds nuw i32, ptr %3, i64 %indvars.iv.i53
  %55 = load i32, ptr %54, align 4, !tbaa !7
  %56 = getelementptr inbounds nuw i32, ptr %.079, i64 %indvars.iv.i53
  %57 = load i32, ptr %56, align 4, !tbaa !7
  %.not.i54 = icmp eq i32 %55, %57
  br i1 %.not.i54, label %53, label %Ses_StoreTimesEqual.exit57

Ses_StoreTimesEqual.exit57:                       ; preds = %.lr.ph.i52
  %58 = getelementptr inbounds nuw i8, ptr %.079, i64 40
  %59 = load ptr, ptr %58, align 8, !tbaa !27
  br label %Ses_StoreTimesEqual.exit

Ses_StoreTimesEqual.exit:                         ; preds = %.lr.ph.i44, %Ses_StoreTimesEqual.exit57
  %.1 = phi ptr [ %59, %Ses_StoreTimesEqual.exit57 ], [ %.079, %.lr.ph.i44 ]
  %.not29 = icmp eq ptr %.1, null
  br i1 %.not29, label %.critedge, label %42, !llvm.loop !57

Ses_StoreTimesEqual.exit.thread:                  ; preds = %52, %45, %47, %53
  %60 = load ptr, ptr %43, align 8, !tbaa !23
  store ptr %60, ptr %4, align 8, !tbaa !55
  br label %.critedge

.critedge:                                        ; preds = %35, %.loopexit.us, %Ses_StoreTimesEqual.exit, %Ses_StoreTableHash.exit.thread, %Ses_StoreTableHash.exit, %Ses_StoreTruthEqual.exit, %Ses_StoreTimesEqual.exit.thread
  %.027 = phi i32 [ 1, %Ses_StoreTimesEqual.exit.thread ], [ 0, %Ses_StoreTruthEqual.exit ], [ 0, %Ses_StoreTableHash.exit ], [ 0, %Ses_StoreTableHash.exit.thread ], [ 0, %Ses_StoreTimesEqual.exit ], [ 0, %.loopexit.us ], [ 0, %35 ]
  call void @llvm.lifetime.end.p0(i64 32, ptr nonnull %6) #29
  ret i32 %.027
}